; Function Attrs: nofree norecurse nosync nounwind memory(read, argmem: readwrite, inaccessiblemem: none) uwtable
define hidden i32 @lj_ctype_info_raw(ptr noundef readonly captures(none) %0, i32 noundef %1, ptr noundef writeonly captures(none) %2) local_unnamed_addr #5 {
  %4 = load ptr, ptr %0, align 8, !tbaa !19
  %5 = zext i32 %1 to i64
  %6 = getelementptr inbounds nuw %struct.CType, ptr %4, i64 %5
  %7 = load i32, ptr %6, align 8, !tbaa !28
  %8 = and i32 %7, -260046848
  %9 = icmp eq i32 %8, 545259520
  %10 = and i32 %7, 65535
  %spec.select = select i1 %9, i32 %10, i32 %1
  br label %11

11:                                               ; preds = %31, %3
  %.pn.in.i = phi i32 [ %spec.select, %3 ], [ %32, %31 ]
  %.023.i = phi i32 [ 0, %3 ], [ %.1.i, %31 ]
  %.pn.i = zext i32 %.pn.in.i to i64
  %.024.i = getelementptr inbounds nuw %struct.CType, ptr %4, i64 %.pn.i
  %12 = load i32, ptr %.024.i, align 8, !tbaa !28
  %13 = lshr i32 %12, 28
  switch i32 %13, label %28 [
    i32 5, label %31
    i32 8, label %14
    i32 6, label %lj_ctype_info.exit
  ]

14:                                               ; preds = %11
  %15 = and i32 %12, -2130771968
  switch i32 %15, label %31 [
    i32 -2147418112, label %16
    i32 -2147352576, label %20
  ]

16:                                               ; preds = %14
  %17 = getelementptr inbounds nuw i8, ptr %.024.i, i64 4
  %18 = load i32, ptr %17, align 4, !tbaa !29
  %19 = or i32 %18, %.023.i
  br label %31

20:                                               ; preds = %14
  %21 = and i32 %.023.i, 1
  %.not28.i = icmp eq i32 %21, 0
  br i1 %.not28.i, label %22, label %31

22:                                               ; preds = %20
  %23 = getelementptr inbounds nuw i8, ptr %.024.i, i64 4
  %24 = load i32, ptr %23, align 4, !tbaa !29
  %25 = shl i32 %24, 16
  %26 = or i32 %.023.i, %25
  %27 = or disjoint i32 %26, 1
  br label %31

28:                                               ; preds = %11
  %29 = getelementptr inbounds nuw i8, ptr %.024.i, i64 4
  %30 = load i32, ptr %29, align 4, !tbaa !29
  br label %lj_ctype_info.exit

31:                                               ; preds = %22, %20, %16, %14, %11
  %.1.i = phi i32 [ %.023.i, %11 ], [ %19, %16 ], [ %.023.i, %20 ], [ %27, %22 ], [ %.023.i, %14 ]
  %32 = and i32 %12, 65535
  br label %11

lj_ctype_info.exit:                               ; preds = %11, %28
  %33 = phi i32 [ %30, %28 ], [ -1, %11 ]
  %34 = and i32 %12, -1048576
  %35 = and i32 %.023.i, 1
  %.not.i = icmp eq i32 %35, 0
  %36 = and i32 %12, 983040
  %37 = select i1 %.not.i, i32 %36, i32 0
  %38 = or disjoint i32 %34, %37
  %39 = or i32 %38, %.023.i
  store i32 %33, ptr %2, align 4, !tbaa !36
  ret i32 %39
}